ccopy_reg
_reconstructor
p0
(cgoogle.oauth2.credentials
Credentials
p1
c__builtin__
object
p2
Ntp3
Rp4
(dp5
S'_quota_project_id'
p6
NsS'_token_uri'
p7
Vhttps://oauth2.googleapis.com/token
p8
sS'_client_secret'
p9
Vl4UAhQTx1yhrB7-CIkTnXr8L
p10
sS'_default_scopes'
p11
NsS'expiry'
p12
cdatetime
datetime
p13
(S'\x07\xe5\x07\x19\n78\x06\x89\xcd'
p14
tp15
Rp16
sS'token'
p17
Vya29.a0ARrdaM_qOXTxgUZPKFJsR0KSX0g8ZQTdPvH6Aem1qq85ULdKVGFvGKAX9jAWOwagEttNSquc3DRhu-f92VQbEXIlOevmSXb2dsCuH899oP_l9WT5W5fzkS4FE3OO2y304o6jEFlIFnzZ_fbUyu-zMWe7D07Z
p18
sS'_refresh_token'
p19
V1//09rDU-BG5zfs3CgYIARAAGAkSNwF-L9Ir8dEQ9WBTsouN1gVgcjTA-GpVeIh-pGJ6Rf2qLXEEFnYYWnUbopchaVAjosMFZI2DO54
p20
sS'_scopes'
p21
(lp22
S'https://www.googleapis.com/auth/drive'
p23
asS'_client_id'
p24
V1004300054263-o4o34kt061jvtrr9trdi5393ddk42vv9.apps.googleusercontent.com
p25
sS'_id_token'
p26
NsS'_rapt_token'
p27
Nsb.